target datalayout = "e-m:e-p270:32:32-p271:32:32-p272:64:64-i64:64-i128:128-f80:128-n8:16:32:64-S128"
target triple = "x86_64-pc-linux-gnu"

%struct.PyVarObject = type { %struct._object, i64 }
%struct._object = type { %union.anon, ptr }
%union.anon = type { i64 }
%struct.PyTupleObject = type { %struct.PyVarObject, [1 x ptr] }

; Function Attrs: inlinehint nounwind uwtable
define internal i64 @Py_SIZE(ptr noundef %0) #1 {
  %2 = alloca ptr, align 8
  store ptr %0, ptr %2, align 8, !tbaa !9
  %3 = load ptr, ptr %2, align 8, !tbaa !9
  %4 = getelementptr inbounds nuw %struct.PyVarObject, ptr %3, i32 0, i32 1
  %5 = load i64, ptr %4, align 8, !tbaa !63
  ret i64 %5
}

; Function Attrs: inlinehint nounwind uwtable
define internal i64 @PyTuple_GET_SIZE(ptr noundef %0) #1 {
  %2 = alloca ptr, align 8
  %3 = alloca ptr, align 8
  store ptr %0, ptr %2, align 8, !tbaa !9
  call void @llvm.lifetime.start.p0(i64 8, ptr %3) #9
  %4 = load ptr, ptr %2, align 8, !tbaa !9
  store ptr %4, ptr %3, align 8, !tbaa !38
  %5 = load ptr, ptr %3, align 8, !tbaa !38
  %6 = call i64 @Py_SIZE(ptr noundef %5)
  call void @llvm.lifetime.end.p0(i64 8, ptr %3) #9
  ret i64 %6
}

; Function Attrs: nounwind uwtable
define hidden ptr @_PyObject_Call_Prepend(ptr noundef %0, ptr noundef %1, ptr noundef %2, ptr noundef %3, ptr noundef %4) #0 {
  %6 = alloca ptr, align 8
  %7 = alloca ptr, align 8
  %8 = alloca ptr, align 8
  %9 = alloca ptr, align 8
  %10 = alloca ptr, align 8
  %11 = alloca ptr, align 8
  %12 = alloca [5 x ptr], align 16
  %13 = alloca ptr, align 8
  %14 = alloca i64, align 8
  %15 = alloca i32, align 4
  %16 = alloca ptr, align 8
  store ptr %0, ptr %7, align 8, !tbaa !4
  store ptr %1, ptr %8, align 8, !tbaa !9
  store ptr %2, ptr %9, align 8, !tbaa !9
  store ptr %3, ptr %10, align 8, !tbaa !9
  store ptr %4, ptr %11, align 8, !tbaa !9
  call void @llvm.lifetime.start.p0(i64 40, ptr %12) #9
  call void @llvm.lifetime.start.p0(i64 8, ptr %13) #9
  call void @llvm.lifetime.start.p0(i64 8, ptr %14) #9
  %17 = load ptr, ptr %10, align 8, !tbaa !9
  %18 = call i64 @PyTuple_GET_SIZE(ptr noundef %17)
  store i64 %18, ptr %14, align 8, !tbaa !37
  %19 = load i64, ptr %14, align 8, !tbaa !37
  %20 = add i64 %19, 1
  %21 = icmp sle i64 %20, 5
  br i1 %21, label %22, label %24

22:                                               ; preds = %5
  %23 = getelementptr inbounds [5 x ptr], ptr %12, i64 0, i64 0
  store ptr %23, ptr %13, align 8, !tbaa !36
  br label %34

24:                                               ; preds = %5
  %25 = load i64, ptr %14, align 8, !tbaa !37
  %26 = add i64 %25, 1
  %27 = mul i64 %26, 8
  %28 = call ptr @PyMem_Malloc(i64 noundef %27)
  store ptr %28, ptr %13, align 8, !tbaa !36
  %29 = load ptr, ptr %13, align 8, !tbaa !36
  %30 = icmp eq ptr %29, null
  br i1 %30, label %31, label %33

31:                                               ; preds = %24
  %32 = call ptr @PyErr_NoMemory()
  store ptr null, ptr %6, align 8
  store i32 1, ptr %15, align 4
  br label %59

33:                                               ; preds = %24
  br label %34

34:                                               ; preds = %33, %22
  %35 = load ptr, ptr %9, align 8, !tbaa !9
  %36 = load ptr, ptr %13, align 8, !tbaa !36
  %37 = getelementptr ptr, ptr %36, i64 0
  store ptr %35, ptr %37, align 8, !tbaa !9
  %38 = load ptr, ptr %13, align 8, !tbaa !36
  %39 = getelementptr ptr, ptr %38, i64 1
  %40 = load ptr, ptr %10, align 8, !tbaa !9
  %41 = getelementptr inbounds nuw %struct.PyTupleObject, ptr %40, i32 0, i32 1
  %42 = getelementptr inbounds [1 x ptr], ptr %41, i64 0, i64 0
  %43 = load i64, ptr %14, align 8, !tbaa !37
  %44 = mul i64 %43, 8
  call void @llvm.memcpy.p0.p0.i64(ptr align 8 %39, ptr align 8 %42, i64 %44, i1 false)
  call void @llvm.lifetime.start.p0(i64 8, ptr %16) #9
  %45 = load ptr, ptr %7, align 8, !tbaa !4
  %46 = load ptr, ptr %8, align 8, !tbaa !9
  %47 = load ptr, ptr %13, align 8, !tbaa !36
  %48 = load i64, ptr %14, align 8, !tbaa !37
  %49 = add i64 %48, 1
  %50 = load ptr, ptr %11, align 8, !tbaa !9
  %51 = call ptr @_PyObject_VectorcallDictTstate(ptr noundef %45, ptr noundef %46, ptr noundef %47, i64 noundef %49, ptr noundef %50)
  store ptr %51, ptr %16, align 8, !tbaa !9
  %52 = load ptr, ptr %13, align 8, !tbaa !36
  %53 = getelementptr inbounds [5 x ptr], ptr %12, i64 0, i64 0
  %54 = icmp ne ptr %52, %53
  br i1 %54, label %55, label %57

55:                                               ; preds = %34
  %56 = load ptr, ptr %13, align 8, !tbaa !36
  call void @PyMem_Free(ptr noundef %56)
  br label %57

57:                                               ; preds = %55, %34
  %58 = load ptr, ptr %16, align 8, !tbaa !9
  store ptr %58, ptr %6, align 8
  store i32 1, ptr %15, align 4
  call void @llvm.lifetime.end.p0(i64 8, ptr %16) #9
  br label %59

59:                                               ; preds = %57, %31
  call void @llvm.lifetime.end.p0(i64 8, ptr %14) #9
  call void @llvm.lifetime.end.p0(i64 8, ptr %13) #9
  call void @llvm.lifetime.end.p0(i64 40, ptr %12) #9
  %60 = load ptr, ptr %6, align 8
  ret ptr %60
}