; Function Attrs: nounwind uwtable
define hidden noundef ptr @_PyObject_Call_Prepend(ptr noundef %0, ptr noundef %1, ptr noundef %2, ptr noundef readonly captures(none) %3, ptr noundef %4) local_unnamed_addr #0 {
  %6 = alloca [5 x ptr], align 16
  call void @llvm.lifetime.start.p0(i64 40, ptr nonnull %6) #10
  %7 = getelementptr i8, ptr %3, i64 16
  %.val = load i64, ptr %7, align 8, !tbaa !40
  %8 = add i64 %.val, 1
  %9 = icmp slt i64 %8, 6
  br i1 %9, label %16, label %10

10:                                               ; preds = %5
  %11 = shl i64 %8, 3
  %12 = tail call ptr @PyMem_Malloc(i64 noundef %11) #10
  %13 = icmp eq ptr %12, null
  br i1 %13, label %14, label %16

14:                                               ; preds = %10
  %15 = tail call ptr @PyErr_NoMemory() #10
  br label %22

16:                                               ; preds = %5, %10
  %.017 = phi ptr [ %12, %10 ], [ %6, %5 ]
  store ptr %2, ptr %.017, align 8, !tbaa !23
  %17 = getelementptr i8, ptr %.017, i64 8
  %18 = getelementptr inbounds nuw i8, ptr %3, i64 24
  %19 = shl i64 %.val, 3
  call void @llvm.memcpy.p0.p0.i64(ptr align 8 %17, ptr nonnull align 8 %18, i64 %19, i1 false)
  %20 = call ptr @_PyObject_VectorcallDictTstate(ptr noundef %0, ptr noundef %1, ptr noundef nonnull %.017, i64 noundef %8, ptr noundef %4)
  %.not = icmp eq ptr %.017, %6
  br i1 %.not, label %22, label %21

21:                                               ; preds = %16
  call void @PyMem_Free(ptr noundef nonnull %.017) #10
  br label %22

22:                                               ; preds = %16, %21, %14
  %.0 = phi ptr [ null, %14 ], [ %20, %21 ], [ %20, %16 ]
  call void @llvm.lifetime.end.p0(i64 40, ptr nonnull %6) #10
  ret ptr %.0
}